target datalayout = "e-m:e-p270:32:32-p271:32:32-p272:64:64-i64:64-i128:128-f80:128-n8:16:32:64-S128"
target triple = "x86_64-pc-linux-gnu"

@rb_eTypeError = external global i64, align 8
@rb_cNumeric = external global i64, align 8
@.str.43 = private unnamed_addr constant [63 x i8] c"wrong argument type %li\0B (must be numeric, true, false or nil)\00", align 1
@bsearch_integer_range.rbimpl_id = internal global i64 0, align 8
@.str.46 = private unnamed_addr constant [4 x i8] c"div\00", align 1

; Function Attrs: inlinehint nounwind sspstrong willreturn memory(read) uwtable
define internal i64 @rb_intern_const(ptr noundef nonnull %0) #7 {
  %2 = alloca ptr, align 8
  %3 = alloca i64, align 8
  store ptr %0, ptr %2, align 8, !tbaa !19
  call void @llvm.lifetime.start.p0(i64 8, ptr %3) #18
  %4 = load ptr, ptr %2, align 8, !tbaa !19
  %5 = call i64 @strlen(ptr noundef %4) #21
  store i64 %5, ptr %3, align 8, !tbaa !7
  %6 = load ptr, ptr %2, align 8, !tbaa !19
  %7 = load i64, ptr %3, align 8, !tbaa !7
  %8 = call i64 @rb_intern2(ptr noundef %6, i64 noundef %7)
  call void @llvm.lifetime.end.p0(i64 8, ptr %3) #18
  ret i64 %8
}

; Function Attrs: inlinehint nounwind sspstrong willreturn memory(none) uwtable
define internal zeroext i1 @RB_TEST(i64 noundef %0) #4 {
  %2 = alloca i64, align 8
  store i64 %0, ptr %2, align 8, !tbaa !7
  %3 = load i64, ptr %2, align 8, !tbaa !7
  %4 = and i64 %3, -5
  %5 = icmp ne i64 %4, 0
  ret i1 %5
}

; Function Attrs: inlinehint nounwind sspstrong willreturn memory(none) uwtable
define internal zeroext i1 @RB_FIXNUM_P(i64 noundef %0) #4 {
  %2 = alloca i64, align 8
  store i64 %0, ptr %2, align 8, !tbaa !7
  %3 = load i64, ptr %2, align 8, !tbaa !7
  %4 = and i64 %3, 1
  %5 = icmp ne i64 %4, 0
  ret i1 %5
}

; Function Attrs: inlinehint nounwind sspstrong memory(argmem: readwrite, inaccessiblemem: readwrite) uwtable
define internal i64 @rbimpl_intern_const(ptr noundef nonnull %0, ptr noundef nonnull %1) #5 {
  %3 = alloca ptr, align 8
  %4 = alloca ptr, align 8
  store ptr %0, ptr %3, align 8, !tbaa !13
  store ptr %1, ptr %4, align 8, !tbaa !19
  br label %5

5:                                                ; preds = %10, %2
  %6 = load ptr, ptr %3, align 8, !tbaa !13
  %7 = load i64, ptr %6, align 8, !tbaa !7
  %8 = icmp ne i64 %7, 0
  %9 = xor i1 %8, true
  br i1 %9, label %10, label %14

10:                                               ; preds = %5
  %11 = load ptr, ptr %4, align 8, !tbaa !19
  %12 = call i64 @rb_intern_const(ptr noundef %11) #21
  %13 = load ptr, ptr %3, align 8, !tbaa !13
  store i64 %12, ptr %13, align 8, !tbaa !7
  br label %5, !llvm.loop !21

14:                                               ; preds = %5
  %15 = load ptr, ptr %3, align 8, !tbaa !13
  %16 = load i64, ptr %15, align 8, !tbaa !7
  ret i64 %16
}

; Function Attrs: nounwind sspstrong uwtable
define internal i64 @bsearch_integer_range(i64 noundef %0, i64 noundef %1, i32 noundef %2) #0 {
  %4 = alloca i64, align 8
  %5 = alloca i64, align 8
  %6 = alloca i64, align 8
  %7 = alloca i32, align 4
  %8 = alloca i64, align 8
  %9 = alloca i32, align 4
  %10 = alloca i64, align 8
  %11 = alloca i64, align 8
  %12 = alloca i64, align 8
  %13 = alloca i64, align 8
  %14 = alloca i64, align 8
  %15 = alloca i64, align 8
  %16 = alloca i32, align 4
  %17 = alloca i32, align 4
  store i64 %0, ptr %5, align 8, !tbaa !7
  store i64 %1, ptr %6, align 8, !tbaa !7
  store i32 %2, ptr %7, align 4, !tbaa !11
  call void @llvm.lifetime.start.p0(i64 8, ptr %8) #18
  store i64 4, ptr %8, align 8, !tbaa !7
  call void @llvm.lifetime.start.p0(i64 4, ptr %9) #18
  call void @llvm.lifetime.start.p0(i64 8, ptr %10) #18
  %18 = load i64, ptr %5, align 8, !tbaa !7
  %19 = call i64 @rb_to_int(i64 noundef %18)
  store i64 %19, ptr %10, align 8, !tbaa !7
  call void @llvm.lifetime.start.p0(i64 8, ptr %11) #18
  %20 = load i64, ptr %6, align 8, !tbaa !7
  %21 = call i64 @rb_to_int(i64 noundef %20)
  store i64 %21, ptr %11, align 8, !tbaa !7
  call void @llvm.lifetime.start.p0(i64 8, ptr %12) #18
  call void @llvm.lifetime.start.p0(i64 8, ptr %13) #18
  br label %22

22:                                               ; preds = %3
  %23 = call i64 @rbimpl_intern_const(ptr noundef @bsearch_integer_range.rbimpl_id, ptr noundef @.str.46) #22
  store i64 %23, ptr %13, align 8, !tbaa !7
  br label %24

24:                                               ; preds = %22
  br label %25

25:                                               ; preds = %24
  %26 = load i32, ptr %7, align 4, !tbaa !11
  %27 = icmp ne i32 %26, 0
  br i1 %27, label %31, label %28

28:                                               ; preds = %25
  %29 = load i64, ptr %11, align 8, !tbaa !7
  %30 = call i64 (i64, i64, i32, ...) @rb_funcall(i64 noundef %29, i64 noundef 43, i32 noundef 1, i64 noundef 3)
  store i64 %30, ptr %11, align 8, !tbaa !7
  br label %31

31:                                               ; preds = %28, %25
  %32 = load i64, ptr %10, align 8, !tbaa !7
  %33 = call i64 (i64, i64, i32, ...) @rb_funcall(i64 noundef %32, i64 noundef 45, i32 noundef 1, i64 noundef 3)
  store i64 %33, ptr %10, align 8, !tbaa !7
  br label %34

34:                                               ; preds = %112, %31
  %35 = load i64, ptr %11, align 8, !tbaa !7
  %36 = load i64, ptr %10, align 8, !tbaa !7
  %37 = call i64 (i64, i64, i32, ...) @rb_funcall(i64 noundef %35, i64 noundef 43, i32 noundef 1, i64 noundef %36)
  %38 = load i64, ptr %13, align 8, !tbaa !7
  %39 = call i64 (i64, i64, i32, ...) @rb_funcall(i64 noundef %37, i64 noundef %38, i32 noundef 1, i64 noundef 5)
  store i64 %39, ptr %12, align 8, !tbaa !7
  %40 = load i64, ptr %10, align 8, !tbaa !7
  %41 = load i64, ptr %12, align 8, !tbaa !7
  %42 = call i64 (i64, i64, i32, ...) @rb_funcall(i64 noundef %40, i64 noundef 135, i32 noundef 1, i64 noundef %41)
  %43 = load i64, ptr %10, align 8, !tbaa !7
  %44 = load i64, ptr %12, align 8, !tbaa !7
  %45 = call i32 @rb_cmpint(i64 noundef %42, i64 noundef %43, i64 noundef %44)
  %46 = icmp slt i32 %45, 0
  br i1 %46, label %47, label %113

47:                                               ; preds = %34
  br label %48

48:                                               ; preds = %47
  call void @llvm.lifetime.start.p0(i64 8, ptr %14) #18
  %49 = load i64, ptr %12, align 8, !tbaa !7
  store i64 %49, ptr %14, align 8, !tbaa !7
  call void @llvm.lifetime.start.p0(i64 8, ptr %15) #18
  %50 = load i64, ptr %14, align 8, !tbaa !7
  %51 = call i64 @rb_yield(i64 noundef %50)
  store i64 %51, ptr %15, align 8, !tbaa !7
  %52 = load i64, ptr %15, align 8, !tbaa !7
  %53 = call zeroext i1 @RB_FIXNUM_P(i64 noundef %52) #19
  br i1 %53, label %54, label %63

54:                                               ; preds = %48
  %55 = load i64, ptr %15, align 8, !tbaa !7
  %56 = icmp eq i64 %55, 1
  br i1 %56, label %57, label %59

57:                                               ; preds = %54
  %58 = load i64, ptr %14, align 8, !tbaa !7
  store i64 %58, ptr %4, align 8
  store i32 1, ptr %16, align 4
  br label %101

59:                                               ; preds = %54
  %60 = load i64, ptr %15, align 8, !tbaa !7
  %61 = icmp slt i64 %60, 0
  %62 = zext i1 %61 to i32
  store i32 %62, ptr %9, align 4, !tbaa !11
  br label %100

63:                                               ; preds = %48
  %64 = load i64, ptr %15, align 8, !tbaa !7
  %65 = icmp eq i64 %64, 20
  br i1 %65, label %66, label %68

66:                                               ; preds = %63
  %67 = load i64, ptr %14, align 8, !tbaa !7
  store i64 %67, ptr %8, align 8, !tbaa !7
  store i32 1, ptr %9, align 4, !tbaa !11
  br label %99

68:                                               ; preds = %63
  %69 = load i64, ptr %15, align 8, !tbaa !7
  %70 = call zeroext i1 @RB_TEST(i64 noundef %69) #19
  br i1 %70, label %72, label %71

71:                                               ; preds = %68
  store i32 0, ptr %9, align 4, !tbaa !11
  br label %98

72:                                               ; preds = %68
  %73 = load i64, ptr %15, align 8, !tbaa !7
  %74 = load i64, ptr @rb_cNumeric, align 8, !tbaa !7
  %75 = call i64 @rb_obj_is_kind_of(i64 noundef %73, i64 noundef %74)
  %76 = icmp ne i64 %75, 0
  br i1 %76, label %77, label %93

77:                                               ; preds = %72
  call void @llvm.lifetime.start.p0(i64 4, ptr %17) #18
  %78 = load i64, ptr %15, align 8, !tbaa !7
  %79 = call i64 (i64, i64, i32, ...) @rb_funcall(i64 noundef %78, i64 noundef 135, i32 noundef 1, i64 noundef 1)
  %80 = load i64, ptr %15, align 8, !tbaa !7
  %81 = call i32 @rb_cmpint(i64 noundef %79, i64 noundef %80, i64 noundef 1)
  store i32 %81, ptr %17, align 4, !tbaa !11
  %82 = load i32, ptr %17, align 4, !tbaa !11
  %83 = icmp ne i32 %82, 0
  br i1 %83, label %86, label %84

84:                                               ; preds = %77
  %85 = load i64, ptr %14, align 8, !tbaa !7
  store i64 %85, ptr %4, align 8
  store i32 1, ptr %16, align 4
  br label %90

86:                                               ; preds = %77
  %87 = load i32, ptr %17, align 4, !tbaa !11
  %88 = icmp slt i32 %87, 0
  %89 = zext i1 %88 to i32
  store i32 %89, ptr %9, align 4, !tbaa !11
  store i32 0, ptr %16, align 4
  br label %90

90:                                               ; preds = %86, %84
  call void @llvm.lifetime.end.p0(i64 4, ptr %17) #18
  %91 = load i32, ptr %16, align 4
  switch i32 %91, label %101 [
    i32 0, label %92
  ]

92:                                               ; preds = %90
  br label %97

93:                                               ; preds = %72
  %94 = load i64, ptr @rb_eTypeError, align 8, !tbaa !7
  %95 = load i64, ptr %15, align 8, !tbaa !7
  %96 = call i64 @rb_obj_class(i64 noundef %95)
  call void (i64, ptr, ...) @rb_raise(i64 noundef %94, ptr noundef @.str.43, i64 noundef %96) #20
  unreachable

97:                                               ; preds = %92
  br label %98

98:                                               ; preds = %97, %71
  br label %99

99:                                               ; preds = %98, %66
  br label %100

100:                                              ; preds = %99, %59
  store i32 0, ptr %16, align 4
  br label %101

101:                                              ; preds = %100, %90, %57
  call void @llvm.lifetime.end.p0(i64 8, ptr %15) #18
  call void @llvm.lifetime.end.p0(i64 8, ptr %14) #18
  %102 = load i32, ptr %16, align 4
  switch i32 %102, label %115 [
    i32 0, label %103
  ]

103:                                              ; preds = %101
  br label %104

104:                                              ; preds = %103
  br label %105

105:                                              ; preds = %104
  %106 = load i32, ptr %9, align 4, !tbaa !11
  %107 = icmp ne i32 %106, 0
  br i1 %107, label %108, label %110

108:                                              ; preds = %105
  %109 = load i64, ptr %12, align 8, !tbaa !7
  store i64 %109, ptr %11, align 8, !tbaa !7
  br label %112

110:                                              ; preds = %105
  %111 = load i64, ptr %12, align 8, !tbaa !7
  store i64 %111, ptr %10, align 8, !tbaa !7
  br label %112

112:                                              ; preds = %110, %108
  br label %34, !llvm.loop !63

113:                                              ; preds = %34
  %114 = load i64, ptr %8, align 8, !tbaa !7
  store i64 %114, ptr %4, align 8
  store i32 1, ptr %16, align 4
  br label %115

115:                                              ; preds = %113, %101
  call void @llvm.lifetime.end.p0(i64 8, ptr %13) #18
  call void @llvm.lifetime.end.p0(i64 8, ptr %12) #18
  call void @llvm.lifetime.end.p0(i64 8, ptr %11) #18
  call void @llvm.lifetime.end.p0(i64 8, ptr %10) #18
  call void @llvm.lifetime.end.p0(i64 4, ptr %9) #18
  call void @llvm.lifetime.end.p0(i64 8, ptr %8) #18
  %116 = load i64, ptr %4, align 8
  ret i64 %116
}