; Function Attrs: nounwind sspstrong uwtable
define internal fastcc i64 @bsearch_integer_range(i64 noundef %0, i64 noundef %1, i32 noundef range(i32 0, 2) %2) unnamed_addr #0 {
  %4 = tail call i64 @rb_to_int(i64 noundef %0) #13
  %5 = tail call i64 @rb_to_int(i64 noundef %1) #13
  %.pr.i = load i64, ptr @bsearch_integer_range.rbimpl_id, align 8, !tbaa !7
  %.not4.i = icmp eq i64 %.pr.i, 0
  br i1 %.not4.i, label %.lr.ph.i, label %rbimpl_intern_const.exit

.lr.ph.i:                                         ; preds = %3, %.lr.ph.i
  %6 = tail call i64 @rb_intern2(ptr noundef nonnull @.str.46, i64 noundef 3) #13
  store i64 %6, ptr @bsearch_integer_range.rbimpl_id, align 8, !tbaa !7
  %.not.i = icmp eq i64 %6, 0
  br i1 %.not.i, label %.lr.ph.i, label %rbimpl_intern_const.exit, !llvm.loop !14

rbimpl_intern_const.exit:                         ; preds = %.lr.ph.i, %3
  %.lcssa.i = phi i64 [ %.pr.i, %3 ], [ %6, %.lr.ph.i ]
  %.not = icmp eq i32 %2, 0
  br i1 %.not, label %7, label %9

7:                                                ; preds = %rbimpl_intern_const.exit
  %8 = tail call i64 (i64, i64, i32, ...) @rb_funcall(i64 noundef %5, i64 noundef 43, i32 noundef 1, i64 noundef 3) #13
  br label %9

9:                                                ; preds = %7, %rbimpl_intern_const.exit
  %.047 = phi i64 [ %5, %rbimpl_intern_const.exit ], [ %8, %7 ]
  %10 = tail call i64 (i64, i64, i32, ...) @rb_funcall(i64 noundef %4, i64 noundef 45, i32 noundef 1, i64 noundef 3) #13
  br label %11

11:                                               ; preds = %.thread, %9
  %.148 = phi i64 [ %.047, %9 ], [ %.148., %.thread ]
  %.045 = phi i64 [ %10, %9 ], [ %..045, %.thread ]
  %.038 = phi i64 [ 4, %9 ], [ %.13962, %.thread ]
  %12 = tail call i64 (i64, i64, i32, ...) @rb_funcall(i64 noundef %.148, i64 noundef 43, i32 noundef 1, i64 noundef %.045) #13
  %13 = tail call i64 (i64, i64, i32, ...) @rb_funcall(i64 noundef %12, i64 noundef %.lcssa.i, i32 noundef 1, i64 noundef 5) #13
  %14 = tail call i64 (i64, i64, i32, ...) @rb_funcall(i64 noundef %.045, i64 noundef 135, i32 noundef 1, i64 noundef %13) #13
  %15 = tail call i32 @rb_cmpint(i64 noundef %14, i64 noundef %.045, i64 noundef %13) #13
  %16 = icmp slt i32 %15, 0
  br i1 %16, label %17, label %.thread64

17:                                               ; preds = %11
  %18 = tail call i64 @rb_yield(i64 noundef %13) #13
  %19 = and i64 %18, 1
  %.not69 = icmp eq i64 %19, 0
  br i1 %.not69, label %24, label %20

20:                                               ; preds = %17
  %21 = icmp eq i64 %18, 1
  br i1 %21, label %.thread64, label %22

22:                                               ; preds = %20
  %.lobit55 = lshr i64 %18, 63
  %23 = trunc nuw nsw i64 %.lobit55 to i32
  br label %.thread

24:                                               ; preds = %17
  %25 = icmp eq i64 %18, 20
  br i1 %25, label %.thread, label %26

26:                                               ; preds = %24
  %27 = and i64 %18, -6
  %.not70 = icmp eq i64 %27, 0
  br i1 %.not70, label %.thread, label %28

28:                                               ; preds = %26
  %29 = load i64, ptr @rb_cNumeric, align 8, !tbaa !7
  %30 = tail call i64 @rb_obj_is_kind_of(i64 noundef %18, i64 noundef %29) #13
  %.not53 = icmp eq i64 %30, 0
  br i1 %.not53, label %31, label %34

31:                                               ; preds = %28
  %32 = load i64, ptr @rb_eTypeError, align 8, !tbaa !7
  %33 = tail call i64 @rb_obj_class(i64 noundef %18) #13
  tail call void (i64, ptr, ...) @rb_raise(i64 noundef %32, ptr noundef nonnull @.str.43, i64 noundef %33) #14
  unreachable

34:                                               ; preds = %28
  %35 = tail call i64 (i64, i64, i32, ...) @rb_funcall(i64 noundef %18, i64 noundef 135, i32 noundef 1, i64 noundef 1) #13
  %36 = tail call i32 @rb_cmpint(i64 noundef %35, i64 noundef %18, i64 noundef 1) #13
  %.not54.not.not = icmp eq i32 %36, 0
  %.lobit = lshr i32 %36, 31
  br i1 %.not54.not.not, label %.thread64, label %.thread

.thread:                                          ; preds = %22, %24, %26, %34
  %.13962 = phi i64 [ %.038, %34 ], [ %.038, %26 ], [ %13, %24 ], [ %.038, %22 ]
  %.14261 = phi i32 [ %.lobit, %34 ], [ 0, %26 ], [ 1, %24 ], [ %23, %22 ]
  %.not56 = icmp eq i32 %.14261, 0
  %.148. = select i1 %.not56, i64 %.148, i64 %13
  %..045 = select i1 %.not56, i64 %13, i64 %.045
  br label %11, !llvm.loop !55

.thread64:                                        ; preds = %20, %11, %34
  %.4 = phi i64 [ %13, %34 ], [ %.038, %11 ], [ %13, %20 ]
  ret i64 %.4
}